target datalayout = "e-m:e-p270:32:32-p271:32:32-p272:64:64-i64:64-i128:128-f80:128-n8:16:32:64-S128"
target triple = "x86_64-unknown-linux-gnu"

%"class.google::protobuf::internal::InternalMetadata" = type { i64 }
%"class.google::protobuf::internal::HasBits" = type { [1 x i32] }
%"class.google::protobuf::internal::CachedSize" = type { i32 }
%"struct.google::protobuf::internal::ArenaStringPtr" = type { %"class.google::protobuf::internal::TaggedStringPtr" }
%"class.google::protobuf::internal::TaggedStringPtr" = type { ptr }
%"class.google::protobuf::Message" = type { %"class.google::protobuf::MessageLite" }
%"class.google::protobuf::MessageLite" = type { ptr, %"class.google::protobuf::internal::InternalMetadata" }
%"class.absl::lts_20230802::log_internal::NullStream" = type { i8 }
%"class.google::protobuf::compiler::CodeGeneratorRequest" = type { %"class.google::protobuf::Message", %union.anon.7 }
%union.anon.7 = type { %"struct.google::protobuf::compiler::CodeGeneratorRequest::Impl_" }
%"struct.google::protobuf::compiler::CodeGeneratorRequest::Impl_" = type { %"class.google::protobuf::internal::HasBits", %"class.google::protobuf::internal::CachedSize", %"class.google::protobuf::RepeatedPtrField.5", %"class.google::protobuf::RepeatedPtrField.6", %"class.google::protobuf::RepeatedPtrField.6", %"struct.google::protobuf::internal::ArenaStringPtr", ptr }
%"class.google::protobuf::RepeatedPtrField.5" = type { %"class.google::protobuf::internal::RepeatedPtrFieldBase" }
%"class.google::protobuf::internal::RepeatedPtrFieldBase" = type { ptr, i32, i32, ptr }
%"class.google::protobuf::RepeatedPtrField.6" = type { %"class.google::protobuf::internal::RepeatedPtrFieldBase" }
%"struct.google::protobuf::internal::RepeatedPtrFieldBase::Rep" = type { i32, [268435454 x ptr] }

; Function Attrs: mustprogress nounwind uwtable
define linkonce_odr hidden noundef ptr @_ZN6google8protobuf8internal20RepeatedPtrFieldBase3repEv(ptr noundef nonnull align 8 dereferenceable(24) %this) #5 comdat align 2 {
entry:
  %this.addr = alloca ptr, align 8
  store ptr %this, ptr %this.addr, align 8
  %this1 = load ptr, ptr %this.addr, align 8
  %tagged_rep_or_elem_ = getelementptr inbounds %"class.google::protobuf::internal::RepeatedPtrFieldBase", ptr %this1, i32 0, i32 0
  %0 = load ptr, ptr %tagged_rep_or_elem_, align 8
  %1 = ptrtoint ptr %0 to i64
  %sub = sub i64 %1, 1
  %2 = inttoptr i64 %sub to ptr
  ret ptr %2
}

; Function Attrs: mustprogress nounwind uwtable
define linkonce_odr hidden noundef zeroext i1 @_ZNK6google8protobuf8internal20RepeatedPtrFieldBase9using_ssoEv(ptr noundef nonnull align 8 dereferenceable(24) %this) #5 comdat align 2 {
entry:
  %this.addr = alloca ptr, align 8
  store ptr %this, ptr %this.addr, align 8
  %this1 = load ptr, ptr %this.addr, align 8
  %tagged_rep_or_elem_ = getelementptr inbounds %"class.google::protobuf::internal::RepeatedPtrFieldBase", ptr %this1, i32 0, i32 0
  %0 = load ptr, ptr %tagged_rep_or_elem_, align 8
  %1 = ptrtoint ptr %0 to i64
  %and = and i64 %1, 1
  %cmp = icmp eq i64 %and, 0
  ret i1 %cmp
}

; Function Attrs: mustprogress nounwind uwtable
define linkonce_odr hidden noundef nonnull align 8 dereferenceable(8) ptr @_ZN6google8protobuf8internal20RepeatedPtrFieldBase10element_atEi(ptr noundef nonnull align 8 dereferenceable(24) %this, i32 noundef %index) #5 comdat align 2 {
entry:
  %retval = alloca ptr, align 8
  %this.addr = alloca ptr, align 8
  %index.addr = alloca i32, align 4
  %ref.tmp = alloca %"class.absl::lts_20230802::log_internal::NullStream", align 1
  store ptr %this, ptr %this.addr, align 8
  store i32 %index, ptr %index.addr, align 4
  %this1 = load ptr, ptr %this.addr, align 8
  %call = call noundef zeroext i1 @_ZNK6google8protobuf8internal20RepeatedPtrFieldBase9using_ssoEv(ptr noundef nonnull align 8 dereferenceable(24) %this1)
  br i1 %call, label %if.then, label %if.end

if.then:                                          ; preds = %entry
  br label %while.cond

while.cond:                                       ; preds = %while.body, %if.then
  br i1 false, label %while.body, label %while.end

while.body:                                       ; preds = %while.cond
  %call2 = call noundef nonnull align 1 dereferenceable(1) ptr @_ZN4absl12lts_2023080212log_internal10NullStream14InternalStreamEv(ptr noundef nonnull align 1 dereferenceable(1) %ref.tmp)
  br label %while.cond, !llvm.loop !40

while.end:                                        ; preds = %while.cond
  %tagged_rep_or_elem_ = getelementptr inbounds %"class.google::protobuf::internal::RepeatedPtrFieldBase", ptr %this1, i32 0, i32 0
  store ptr %tagged_rep_or_elem_, ptr %retval, align 8
  br label %return

if.end:                                           ; preds = %entry
  %call3 = call noundef ptr @_ZN6google8protobuf8internal20RepeatedPtrFieldBase3repEv(ptr noundef nonnull align 8 dereferenceable(24) %this1)
  %elements = getelementptr inbounds %"struct.google::protobuf::internal::RepeatedPtrFieldBase::Rep", ptr %call3, i32 0, i32 1
  %0 = load i32, ptr %index.addr, align 4
  %idxprom = sext i32 %0 to i64
  %arrayidx = getelementptr inbounds [268435454 x ptr], ptr %elements, i64 0, i64 %idxprom
  store ptr %arrayidx, ptr %retval, align 8
  br label %return

return:                                           ; preds = %if.end, %while.end
  %1 = load ptr, ptr %retval, align 8
  ret ptr %1
}

; Function Attrs: mustprogress nounwind uwtable
define linkonce_odr hidden noundef ptr @_ZN6google8protobuf8internal20RepeatedPtrFieldBase4castINS1_18GenericTypeHandlerINS0_19FileDescriptorProtoEEEEEPKNT_4TypeEPKv(ptr noundef %element) #5 comdat align 2 {
entry:
  %element.addr = alloca ptr, align 8
  store ptr %element, ptr %element.addr, align 8
  %0 = load ptr, ptr %element.addr, align 8
  ret ptr %0
}

; Function Attrs: mustprogress uwtable
define linkonce_odr hidden noundef ptr @_ZNK6google8protobuf8internal20RepeatedPtrFieldBase10element_atEi(ptr noundef nonnull align 8 dereferenceable(24) %this, i32 noundef %index) #4 comdat align 2 {
entry:
  %this.addr = alloca ptr, align 8
  %index.addr = alloca i32, align 4
  store ptr %this, ptr %this.addr, align 8
  store i32 %index, ptr %index.addr, align 4
  %this1 = load ptr, ptr %this.addr, align 8
  %0 = load i32, ptr %index.addr, align 4
  %call = call noundef nonnull align 8 dereferenceable(8) ptr @_ZN6google8protobuf8internal20RepeatedPtrFieldBase10element_atEi(ptr noundef nonnull align 8 dereferenceable(24) %this1, i32 noundef %0)
  %1 = load ptr, ptr %call, align 8
  ret ptr %1
}

; Function Attrs: mustprogress nounwind uwtable
define linkonce_odr hidden noundef nonnull align 1 dereferenceable(1) ptr @_ZN4absl12lts_2023080212log_internal10NullStream14InternalStreamEv(ptr noundef nonnull align 1 dereferenceable(1) %this) #5 comdat align 2 {
entry:
  %this.addr = alloca ptr, align 8
  store ptr %this, ptr %this.addr, align 8
  %this1 = load ptr, ptr %this.addr, align 8
  ret ptr %this1
}

; Function Attrs: mustprogress uwtable
define linkonce_odr hidden noundef nonnull align 8 dereferenceable(224) ptr @_ZNK6google8protobuf8internal20RepeatedPtrFieldBase3GetINS1_18GenericTypeHandlerINS0_19FileDescriptorProtoEEEEERKNT_4TypeEi(ptr noundef nonnull align 8 dereferenceable(24) %this, i32 noundef %index) #4 comdat align 2 {
entry:
  %this.addr = alloca ptr, align 8
  %index.addr = alloca i32, align 4
  %ref.tmp = alloca %"class.absl::lts_20230802::log_internal::NullStream", align 1
  %ref.tmp4 = alloca %"class.absl::lts_20230802::log_internal::NullStream", align 1
  store ptr %this, ptr %this.addr, align 8
  store i32 %index, ptr %index.addr, align 4
  %this1 = load ptr, ptr %this.addr, align 8
  br label %while.cond

while.cond:                                       ; preds = %while.body, %entry
  br i1 false, label %while.body, label %while.end

while.body:                                       ; preds = %while.cond
  %call = call noundef nonnull align 1 dereferenceable(1) ptr @_ZN4absl12lts_2023080212log_internal10NullStream14InternalStreamEv(ptr noundef nonnull align 1 dereferenceable(1) %ref.tmp)
  br label %while.cond, !llvm.loop !38

while.end:                                        ; preds = %while.cond
  br label %while.cond2

while.cond2:                                      ; preds = %while.body3, %while.end
  br i1 false, label %while.body3, label %while.end6

while.body3:                                      ; preds = %while.cond2
  %call5 = call noundef nonnull align 1 dereferenceable(1) ptr @_ZN4absl12lts_2023080212log_internal10NullStream14InternalStreamEv(ptr noundef nonnull align 1 dereferenceable(1) %ref.tmp4)
  br label %while.cond2, !llvm.loop !39

while.end6:                                       ; preds = %while.cond2
  %0 = load i32, ptr %index.addr, align 4
  %call7 = call noundef ptr @_ZNK6google8protobuf8internal20RepeatedPtrFieldBase10element_atEi(ptr noundef nonnull align 8 dereferenceable(24) %this1, i32 noundef %0)
  %call8 = call noundef ptr @_ZN6google8protobuf8internal20RepeatedPtrFieldBase4castINS1_18GenericTypeHandlerINS0_19FileDescriptorProtoEEEEEPKNT_4TypeEPKv(ptr noundef %call7)
  ret ptr %call8
}

; Function Attrs: mustprogress nounwind uwtable
define linkonce_odr hidden noundef i32 @_ZNK6google8protobuf8internal20RepeatedPtrFieldBase4sizeEv(ptr noundef nonnull align 8 dereferenceable(24) %this) #5 comdat align 2 {
entry:
  %this.addr = alloca ptr, align 8
  store ptr %this, ptr %this.addr, align 8
  %this1 = load ptr, ptr %this.addr, align 8
  %current_size_ = getelementptr inbounds %"class.google::protobuf::internal::RepeatedPtrFieldBase", ptr %this1, i32 0, i32 1
  %0 = load i32, ptr %current_size_, align 8
  ret i32 %0
}

; Function Attrs: mustprogress uwtable
define linkonce_odr hidden noundef nonnull align 8 dereferenceable(224) ptr @_ZNK6google8protobuf16RepeatedPtrFieldINS0_19FileDescriptorProtoEE3GetEi(ptr noundef nonnull align 8 dereferenceable(24) %this, i32 noundef %index) #4 comdat align 2 {
entry:
  %this.addr = alloca ptr, align 8
  %index.addr = alloca i32, align 4
  store ptr %this, ptr %this.addr, align 8
  store i32 %index, ptr %index.addr, align 4
  %this1 = load ptr, ptr %this.addr, align 8
  %0 = load i32, ptr %index.addr, align 4
  %call = call noundef nonnull align 8 dereferenceable(224) ptr @_ZNK6google8protobuf8internal20RepeatedPtrFieldBase3GetINS1_18GenericTypeHandlerINS0_19FileDescriptorProtoEEEEERKNT_4TypeEi(ptr noundef nonnull align 8 dereferenceable(24) %this1, i32 noundef %0)
  ret ptr %call
}

; Function Attrs: mustprogress uwtable
define linkonce_odr hidden noundef i32 @_ZNK6google8protobuf16RepeatedPtrFieldINS0_19FileDescriptorProtoEE4sizeEv(ptr noundef nonnull align 8 dereferenceable(24) %this) #4 comdat align 2 {
entry:
  %this.addr = alloca ptr, align 8
  store ptr %this, ptr %this.addr, align 8
  %this1 = load ptr, ptr %this.addr, align 8
  %call = call noundef i32 @_ZNK6google8protobuf8internal20RepeatedPtrFieldBase4sizeEv(ptr noundef nonnull align 8 dereferenceable(24) %this1)
  ret i32 %call
}

; Function Attrs: mustprogress nounwind uwtable
define linkonce_odr hidden noundef nonnull align 8 dereferenceable(24) ptr @_ZNK6google8protobuf8compiler20CodeGeneratorRequest33_internal_source_file_descriptorsEv(ptr noundef nonnull align 8 dereferenceable(112) %this) #5 comdat align 2 {
entry:
  %this.addr = alloca ptr, align 8
  store ptr %this, ptr %this.addr, align 8
  %this1 = load ptr, ptr %this.addr, align 8
  %0 = getelementptr inbounds %"class.google::protobuf::compiler::CodeGeneratorRequest", ptr %this1, i32 0, i32 1
  %source_file_descriptors_ = getelementptr inbounds %"struct.google::protobuf::compiler::CodeGeneratorRequest::Impl_", ptr %0, i32 0, i32 4
  ret ptr %source_file_descriptors_
}

; Function Attrs: mustprogress uwtable
define linkonce_odr hidden noundef zeroext i1 @_ZN6google8protobuf8internal17AllAreInitializedINS0_19FileDescriptorProtoEEEbRKNS0_16RepeatedPtrFieldIT_EE(ptr noundef nonnull align 8 dereferenceable(24) %t) #4 comdat {
entry:
  %retval = alloca i1, align 1
  %t.addr = alloca ptr, align 8
  %i = alloca i32, align 4
  store ptr %t, ptr %t.addr, align 8
  %0 = load ptr, ptr %t.addr, align 8
  %call = call noundef i32 @_ZNK6google8protobuf16RepeatedPtrFieldINS0_19FileDescriptorProtoEE4sizeEv(ptr noundef nonnull align 8 dereferenceable(24) %0)
  store i32 %call, ptr %i, align 4
  br label %for.cond

for.cond:                                         ; preds = %if.end, %entry
  %1 = load i32, ptr %i, align 4
  %dec = add nsw i32 %1, -1
  store i32 %dec, ptr %i, align 4
  %cmp = icmp sge i32 %dec, 0
  br i1 %cmp, label %for.body, label %for.end

for.body:                                         ; preds = %for.cond
  %2 = load ptr, ptr %t.addr, align 8
  %3 = load i32, ptr %i, align 4
  %call1 = call noundef nonnull align 8 dereferenceable(224) ptr @_ZNK6google8protobuf16RepeatedPtrFieldINS0_19FileDescriptorProtoEE3GetEi(ptr noundef nonnull align 8 dereferenceable(24) %2, i32 noundef %3)
  %call2 = call noundef zeroext i1 @_ZNK6google8protobuf19FileDescriptorProto13IsInitializedEv(ptr noundef nonnull align 8 dereferenceable(224) %call1)
  br i1 %call2, label %if.end, label %if.then

if.then:                                          ; preds = %for.body
  store i1 false, ptr %retval, align 1
  br label %return

if.end:                                           ; preds = %for.body
  br label %for.cond, !llvm.loop !16

for.end:                                          ; preds = %for.cond
  store i1 true, ptr %retval, align 1
  br label %return

return:                                           ; preds = %for.end, %if.then
  %4 = load i1, ptr %retval, align 1
  ret i1 %4
}

; Function Attrs: mustprogress nounwind uwtable
define linkonce_odr hidden noundef nonnull align 8 dereferenceable(24) ptr @_ZNK6google8protobuf8compiler20CodeGeneratorRequest20_internal_proto_fileEv(ptr noundef nonnull align 8 dereferenceable(112) %this) #5 comdat align 2 {
entry:
  %this.addr = alloca ptr, align 8
  store ptr %this, ptr %this.addr, align 8
  %this1 = load ptr, ptr %this.addr, align 8
  %0 = getelementptr inbounds %"class.google::protobuf::compiler::CodeGeneratorRequest", ptr %this1, i32 0, i32 1
  %proto_file_ = getelementptr inbounds %"struct.google::protobuf::compiler::CodeGeneratorRequest::Impl_", ptr %0, i32 0, i32 3
  ret ptr %proto_file_
}

; Function Attrs: mustprogress uwtable
define noundef zeroext i1 @_ZNK6google8protobuf8compiler20CodeGeneratorRequest13IsInitializedEv(ptr noundef nonnull align 8 dereferenceable(112) %this) unnamed_addr #4 align 2 {
entry:
  %retval = alloca i1, align 1
  %this.addr = alloca ptr, align 8
  store ptr %this, ptr %this.addr, align 8
  %this1 = load ptr, ptr %this.addr, align 8
  %call = call noundef nonnull align 8 dereferenceable(24) ptr @_ZNK6google8protobuf8compiler20CodeGeneratorRequest20_internal_proto_fileEv(ptr noundef nonnull align 8 dereferenceable(112) %this1)
  %call2 = call noundef zeroext i1 @_ZN6google8protobuf8internal17AllAreInitializedINS0_19FileDescriptorProtoEEEbRKNS0_16RepeatedPtrFieldIT_EE(ptr noundef nonnull align 8 dereferenceable(24) %call)
  br i1 %call2, label %if.end, label %if.then

if.then:                                          ; preds = %entry
  store i1 false, ptr %retval, align 1
  br label %return

if.end:                                           ; preds = %entry
  %call3 = call noundef nonnull align 8 dereferenceable(24) ptr @_ZNK6google8protobuf8compiler20CodeGeneratorRequest33_internal_source_file_descriptorsEv(ptr noundef nonnull align 8 dereferenceable(112) %this1)
  %call4 = call noundef zeroext i1 @_ZN6google8protobuf8internal17AllAreInitializedINS0_19FileDescriptorProtoEEEbRKNS0_16RepeatedPtrFieldIT_EE(ptr noundef nonnull align 8 dereferenceable(24) %call3)
  br i1 %call4, label %if.end6, label %if.then5

if.then5:                                         ; preds = %if.end
  store i1 false, ptr %retval, align 1
  br label %return

if.end6:                                          ; preds = %if.end
  store i1 true, ptr %retval, align 1
  br label %return

return:                                           ; preds = %if.end6, %if.then5, %if.then
  %0 = load i1, ptr %retval, align 1
  ret i1 %0
}