; Function Attrs: mustprogress uwtable
define noundef zeroext i1 @_ZNK6google8protobuf8compiler20CodeGeneratorRequest13IsInitializedEv(ptr nocapture noundef nonnull readonly align 8 dereferenceable(112) %this) unnamed_addr #3 align 2 {
entry:
  %proto_file_.i = getelementptr inbounds i8, ptr %this, i64 48
  %current_size_.i.i.i = getelementptr inbounds i8, ptr %this, i64 56
  %0 = load i32, ptr %current_size_.i.i.i, align 8
  %1 = zext i32 %0 to i64
  br label %for.cond.i

for.cond.i:                                       ; preds = %for.body.i, %entry
  %indvars.iv.i = phi i64 [ %3, %for.body.i ], [ %1, %entry ]
  %2 = trunc i64 %indvars.iv.i to i32
  %cmp.i = icmp slt i32 %2, 1
  br i1 %cmp.i, label %if.end, label %for.body.i

for.body.i:                                       ; preds = %for.cond.i
  %3 = add nsw i64 %indvars.iv.i, -1
  %4 = load ptr, ptr %proto_file_.i, align 8
  %5 = ptrtoint ptr %4 to i64
  %and.i.i.i.i.i.i = and i64 %5, 1
  %cmp.i.i.i.i.i.i = icmp eq i64 %and.i.i.i.i.i.i, 0
  %sub.i.i.i.i.i.i = add i64 %5, -1
  %6 = inttoptr i64 %sub.i.i.i.i.i.i to ptr
  %elements.i.i.i.i.i = getelementptr inbounds i8, ptr %6, i64 8
  %arrayidx.i.i.i.i.i = getelementptr inbounds [268435454 x ptr], ptr %elements.i.i.i.i.i, i64 0, i64 %3
  %retval.0.i.i.i.i.i = select i1 %cmp.i.i.i.i.i.i, ptr %proto_file_.i, ptr %arrayidx.i.i.i.i.i
  %7 = load ptr, ptr %retval.0.i.i.i.i.i, align 8
  %call2.i = tail call noundef zeroext i1 @_ZNK6google8protobuf19FileDescriptorProto13IsInitializedEv(ptr noundef nonnull align 8 dereferenceable(224) %7)
  br i1 %call2.i, label %for.cond.i, label %return, !llvm.loop !20

if.end:                                           ; preds = %for.cond.i
  %source_file_descriptors_.i = getelementptr inbounds i8, ptr %this, i64 72
  %current_size_.i.i.i1 = getelementptr inbounds i8, ptr %this, i64 80
  %8 = load i32, ptr %current_size_.i.i.i1, align 8
  %9 = zext i32 %8 to i64
  br label %for.cond.i2

for.cond.i2:                                      ; preds = %for.body.i5, %if.end
  %indvars.iv.i3 = phi i64 [ %11, %for.body.i5 ], [ %9, %if.end ]
  %10 = trunc i64 %indvars.iv.i3 to i32
  %cmp.i4 = icmp slt i32 %10, 1
  br i1 %cmp.i4, label %return, label %for.body.i5

for.body.i5:                                      ; preds = %for.cond.i2
  %11 = add nsw i64 %indvars.iv.i3, -1
  %12 = load ptr, ptr %source_file_descriptors_.i, align 8
  %13 = ptrtoint ptr %12 to i64
  %and.i.i.i.i.i.i6 = and i64 %13, 1
  %cmp.i.i.i.i.i.i7 = icmp eq i64 %and.i.i.i.i.i.i6, 0
  %sub.i.i.i.i.i.i8 = add i64 %13, -1
  %14 = inttoptr i64 %sub.i.i.i.i.i.i8 to ptr
  %elements.i.i.i.i.i9 = getelementptr inbounds i8, ptr %14, i64 8
  %arrayidx.i.i.i.i.i10 = getelementptr inbounds [268435454 x ptr], ptr %elements.i.i.i.i.i9, i64 0, i64 %11
  %retval.0.i.i.i.i.i11 = select i1 %cmp.i.i.i.i.i.i7, ptr %source_file_descriptors_.i, ptr %arrayidx.i.i.i.i.i10
  %15 = load ptr, ptr %retval.0.i.i.i.i.i11, align 8
  %call2.i12 = tail call noundef zeroext i1 @_ZNK6google8protobuf19FileDescriptorProto13IsInitializedEv(ptr noundef nonnull align 8 dereferenceable(224) %15)
  br i1 %call2.i12, label %for.cond.i2, label %return, !llvm.loop !20

return:                                           ; preds = %for.body.i, %for.body.i5, %for.cond.i2
  %retval.0 = phi i1 [ %cmp.i4, %for.cond.i2 ], [ %cmp.i4, %for.body.i5 ], [ false, %for.body.i ]
  ret i1 %retval.0
}